; Function Attrs: nounwind uwtable
define ptr @l_Lake_Toml_commentFn(ptr noundef %0, ptr noundef %1) local_unnamed_addr #1 {
  %3 = load ptr, ptr @l_Lake_Toml_commentFn___closed__2, align 8, !tbaa !10
  %4 = tail call ptr @l_Lake_Toml_chFn(i32 noundef 35, ptr noundef %3, ptr noundef %0, ptr noundef %1) #4
  %5 = getelementptr inbounds nuw i8, ptr %4, i64 40
  %6 = load ptr, ptr %5, align 8, !tbaa !10
  %7 = ptrtoint ptr %6 to i64
  %8 = and i64 %7, 1
  %.not = icmp eq i64 %8, 0
  br i1 %.not, label %9, label %lean_inc.exit

9:                                                ; preds = %2
  %.val.i = load i32, ptr %6, align 4, !tbaa !4
  %10 = icmp sgt i32 %.val.i, 0
  br i1 %10, label %11, label %13, !prof !9

11:                                               ; preds = %9
  %12 = add nuw i32 %.val.i, 1
  store i32 %12, ptr %6, align 4, !tbaa !4
  br label %lean_inc.exit

13:                                               ; preds = %9
  %.not.i = icmp eq i32 %.val.i, 0
  br i1 %.not.i, label %lean_inc.exit, label %14

14:                                               ; preds = %13
  tail call void @lean_inc_ref_cold(ptr noundef nonnull %6) #4
  br label %lean_inc.exit

lean_inc.exit:                                    ; preds = %14, %13, %11, %2
  %15 = tail call zeroext i8 @l_Option_beqOption____x40_Init_Data_Option_Basic___hyg_160____at_Lean_Parser_ParserState_hasError___spec__1(ptr noundef %6, ptr noundef nonnull inttoptr (i64 1 to ptr)) #4
  %16 = icmp eq i8 %15, 0
  br i1 %16, label %20, label %17

17:                                               ; preds = %lean_inc.exit
  %18 = load ptr, ptr @l_Lake_Toml_commentBodyFn___closed__1, align 8, !tbaa !10
  %19 = tail call ptr @l_Lean_Parser_takeUntilFn(ptr noundef %18, ptr noundef %0, ptr noundef nonnull %4) #4
  br label %20

20:                                               ; preds = %lean_inc.exit, %17
  %.0 = phi ptr [ %19, %17 ], [ %4, %lean_inc.exit ]
  ret ptr %.0
}